; Function Attrs: nounwind uwtable
define noalias nonnull ptr @l_Lake_instMonadErrorELogTOfMonad___rarg(ptr noundef %0) #1 {
  %2 = getelementptr inbounds nuw i8, ptr %0, i64 8
  %3 = load ptr, ptr %2, align 8, !tbaa !10
  %4 = ptrtoint ptr %3 to i64
  %5 = and i64 %4, 1
  %.not = icmp eq i64 %5, 0
  br i1 %.not, label %6, label %lean_inc.exit11

6:                                                ; preds = %1
  %.val.i = load i32, ptr %3, align 4, !tbaa !4
  %7 = icmp sgt i32 %.val.i, 0
  br i1 %7, label %8, label %10, !prof !9

8:                                                ; preds = %6
  %9 = add nuw i32 %.val.i, 1
  store i32 %9, ptr %3, align 4, !tbaa !4
  br label %lean_inc.exit11

10:                                               ; preds = %6
  %.not.i = icmp eq i32 %.val.i, 0
  br i1 %.not.i, label %lean_inc.exit11, label %11

11:                                               ; preds = %10
  tail call void @lean_inc_ref_cold(ptr noundef nonnull %3) #9
  br label %lean_inc.exit11

lean_inc.exit11:                                  ; preds = %11, %10, %8, %1
  %12 = getelementptr inbounds nuw i8, ptr %3, i64 16
  %13 = load ptr, ptr %12, align 8, !tbaa !10
  %14 = ptrtoint ptr %13 to i64
  %15 = and i64 %14, 1
  %.not15 = icmp eq i64 %15, 0
  br i1 %.not15, label %16, label %lean_inc.exit

16:                                               ; preds = %lean_inc.exit11
  %.val.i12 = load i32, ptr %13, align 4, !tbaa !4
  %17 = icmp sgt i32 %.val.i12, 0
  br i1 %17, label %18, label %20, !prof !9

18:                                               ; preds = %16
  %19 = add nuw i32 %.val.i12, 1
  store i32 %19, ptr %13, align 4, !tbaa !4
  br label %lean_inc.exit

20:                                               ; preds = %16
  %.not.i13 = icmp eq i32 %.val.i12, 0
  br i1 %.not.i13, label %lean_inc.exit, label %21

21:                                               ; preds = %20
  tail call void @lean_inc_ref_cold(ptr noundef nonnull %13) #9
  br label %lean_inc.exit

lean_inc.exit:                                    ; preds = %21, %20, %18, %lean_inc.exit11
  tail call void @lean_inc_heartbeat() #9
  %22 = tail call noalias ptr @mi_malloc_small(i64 noundef 48) #9
  %23 = icmp eq ptr %22, null
  br i1 %23, label %24, label %lean_alloc_closure.exit

24:                                               ; preds = %lean_inc.exit
  tail call void @lean_internal_panic_out_of_memory() #10
  unreachable

lean_alloc_closure.exit:                          ; preds = %lean_inc.exit
  %25 = getelementptr inbounds nuw i8, ptr %22, i64 4
  store i32 1, ptr %22, align 4, !tbaa !4
  store i32 -184549328, ptr %25, align 4
  %26 = getelementptr inbounds nuw i8, ptr %22, i64 8
  store ptr @l_Lake_instMonadErrorELogTOfMonad___rarg___lambda__5, ptr %26, align 8, !tbaa !10
  %27 = getelementptr inbounds nuw i8, ptr %22, i64 16
  store i16 6, ptr %27, align 8, !tbaa !12
  %28 = getelementptr inbounds nuw i8, ptr %22, i64 18
  store i16 3, ptr %28, align 2, !tbaa !12
  %29 = getelementptr inbounds nuw i8, ptr %22, i64 24
  store ptr %3, ptr %29, align 8, !tbaa !10
  %30 = getelementptr inbounds nuw i8, ptr %22, i64 32
  store ptr %0, ptr %30, align 8, !tbaa !10
  %31 = getelementptr inbounds nuw i8, ptr %22, i64 40
  store ptr %13, ptr %31, align 8, !tbaa !10
  ret ptr %22
}